target datalayout = "e-m:e-p270:32:32-p271:32:32-p272:64:64-i64:64-i128:128-f80:128-n8:16:32:64-S128"
target triple = "x86_64-pc-linux-gnu"

%struct.asn1_object_st = type { ptr, ptr, i32, i32, ptr, i32 }

; Function Attrs: nounwind uwtable
define internal i32 @ln_cmp(ptr noundef %0, ptr noundef %1) #0 {
  %3 = alloca ptr, align 8
  %4 = alloca ptr, align 8
  store ptr %0, ptr %3, align 8, !tbaa !36
  store ptr %1, ptr %4, align 8, !tbaa !28
  %5 = load ptr, ptr %3, align 8, !tbaa !36
  %6 = load ptr, ptr %5, align 8, !tbaa !23
  %7 = getelementptr inbounds nuw %struct.asn1_object_st, ptr %6, i32 0, i32 1
  %8 = load ptr, ptr %7, align 8, !tbaa !25
  %9 = load ptr, ptr %4, align 8, !tbaa !28
  %10 = load i32, ptr %9, align 4, !tbaa !21
  %11 = zext i32 %10 to i64
  %12 = getelementptr inbounds nuw [1487 x %struct.asn1_object_st], ptr @nid_objs, i64 0, i64 %11
  %13 = getelementptr inbounds nuw %struct.asn1_object_st, ptr %12, i32 0, i32 1
  %14 = load ptr, ptr %13, align 8, !tbaa !25
  %15 = call i32 @strcmp(ptr noundef %8, ptr noundef %14) #7
  ret i32 %15
}

; Function Attrs: nounwind uwtable
define internal i32 @ln_cmp_BSEARCH_CMP_FN(ptr noundef %0, ptr noundef %1) #0 {
  %3 = alloca ptr, align 8
  %4 = alloca ptr, align 8
  %5 = alloca ptr, align 8
  %6 = alloca ptr, align 8
  store ptr %0, ptr %3, align 8, !tbaa !10
  store ptr %1, ptr %4, align 8, !tbaa !10
  call void @llvm.lifetime.start.p0(i64 8, ptr %5) #6
  %7 = load ptr, ptr %3, align 8, !tbaa !10
  store ptr %7, ptr %5, align 8, !tbaa !36
  call void @llvm.lifetime.start.p0(i64 8, ptr %6) #6
  %8 = load ptr, ptr %4, align 8, !tbaa !10
  store ptr %8, ptr %6, align 8, !tbaa !28
  %9 = load ptr, ptr %5, align 8, !tbaa !36
  %10 = load ptr, ptr %6, align 8, !tbaa !28
  %11 = call i32 @ln_cmp(ptr noundef %9, ptr noundef %10)
  call void @llvm.lifetime.end.p0(i64 8, ptr %6) #6
  call void @llvm.lifetime.end.p0(i64 8, ptr %5) #6
  ret i32 %11
}