; Function Attrs: mustprogress nofree nounwind willreturn memory(read, inaccessiblemem: none) uwtable
define internal i32 @ln_cmp_BSEARCH_CMP_FN(ptr noundef readonly captures(none) %0, ptr noundef readonly captures(none) %1) #7 {
  %.val = load ptr, ptr %0, align 8, !tbaa !22
  %.val4 = load i32, ptr %1, align 4, !tbaa !23
  %3 = getelementptr i8, ptr %.val, i64 8
  %.val.val = load ptr, ptr %3, align 8, !tbaa !19
  %4 = zext i32 %.val4 to i64
  %5 = getelementptr inbounds nuw [1487 x %struct.asn1_object_st], ptr @nid_objs, i64 0, i64 %4, i32 1
  %6 = load ptr, ptr %5, align 8, !tbaa !19
  %7 = tail call i32 @strcmp(ptr noundef nonnull readonly dereferenceable(1) %.val.val, ptr noundef nonnull dereferenceable(1) %6) #11
  ret i32 %7
}